; Function Attrs: nounwind uwtable
define dso_local zeroext i1 @get_rel_relispartition(i32 noundef %0) local_unnamed_addr #0 {
  %2 = zext i32 %0 to i64
  %3 = tail call ptr @SearchSysCache1(i32 noundef 57, i64 noundef %2) #8
  %.not = icmp eq ptr %3, null
  br i1 %.not, label %13, label %4

4:                                                ; preds = %1
  %5 = getelementptr i8, ptr %3, i64 16
  %.val = load ptr, ptr %5, align 8
  %6 = getelementptr inbounds nuw i8, ptr %.val, i64 22
  %7 = load i8, ptr %6, align 2
  %8 = zext i8 %7 to i64
  %9 = getelementptr inbounds nuw i8, ptr %.val, i64 %8
  %10 = getelementptr inbounds nuw i8, ptr %9, i64 127
  %11 = load i8, ptr %10, align 1, !range !14, !noundef !15
  %12 = trunc nuw i8 %11 to i1
  tail call void @ReleaseSysCache(ptr noundef nonnull %3) #8
  br label %13

13:                                               ; preds = %1, %4
  %.0 = phi i1 [ %12, %4 ], [ false, %1 ]
  ret i1 %.0
}